; Function Attrs: mustprogress uwtable
define dso_local noundef zeroext i1 @_ZN20cmCTestScriptHandler20EmptyBinaryDirectoryERKNSt7__cxx1112basic_stringIcSt11char_traitsIcESaIcEEERS5_(ptr noundef nonnull align 8 dereferenceable(32) %0, ptr noundef nonnull align 8 dereferenceable(32) %1) local_unnamed_addr #3 align 2 personality ptr @__gxx_personality_v0 {
  %3 = alloca [2 x %"struct.std::pair.779"], align 8
  %4 = alloca %"class.std::__cxx11::basic_string", align 8
  %5 = alloca %"class.cmsys::Status", align 8
  %6 = alloca %"class.std::__cxx11::basic_string", align 8
  %7 = tail call noundef i64 @_ZNKSt7__cxx1112basic_stringIcSt11char_traitsIcESaIcEE4sizeEv(ptr noundef nonnull align 8 dereferenceable(32) %0) #20
  %8 = icmp ult i64 %7, 2
  br i1 %8, label %9, label %11

9:                                                ; preds = %2
  %10 = tail call noundef nonnull align 8 dereferenceable(32) ptr @_ZNSt7__cxx1112basic_stringIcSt11char_traitsIcESaIcEEaSEPKc(ptr noundef nonnull align 8 dereferenceable(32) %1, ptr noundef nonnull @.str.86)
  br label %37

11:                                               ; preds = %2
  %12 = tail call noundef zeroext i1 @_ZN5cmsys11SystemTools10FileExistsERKNSt7__cxx1112basic_stringIcSt11char_traitsIcESaIcEEE(ptr noundef nonnull align 8 dereferenceable(32) %0)
  br i1 %12, label %13, label %37

13:                                               ; preds = %11
  call void @llvm.lifetime.start.p0(i64 48, ptr nonnull %3)
  %14 = tail call { i64, ptr } @_ZNKSt7__cxx1112basic_stringIcSt11char_traitsIcESaIcEEcvSt17basic_string_viewIcS2_EEv(ptr noundef nonnull align 8 dereferenceable(32) %0) #20, !noalias !146
  %15 = extractvalue { i64, ptr } %14, 0
  %16 = extractvalue { i64, ptr } %14, 1
  store i64 %15, ptr %3, align 8, !alias.scope !149, !noalias !146
  %.sroa.2.0..sroa_idx.i.i = getelementptr inbounds i8, ptr %3, i64 8
  store ptr %16, ptr %.sroa.2.0..sroa_idx.i.i, align 8, !alias.scope !149, !noalias !146
  %17 = getelementptr inbounds i8, ptr %3, i64 16
  store ptr null, ptr %17, align 8, !alias.scope !149, !noalias !146
  %18 = getelementptr inbounds i8, ptr %3, i64 24
  store i64 15, ptr %18, align 8, !alias.scope !152, !noalias !146
  %.sroa.2.0..sroa_idx.i6.i = getelementptr inbounds i8, ptr %3, i64 32
  store ptr @.str.85, ptr %.sroa.2.0..sroa_idx.i6.i, align 8, !alias.scope !152, !noalias !146
  %19 = getelementptr inbounds i8, ptr %3, i64 40
  store ptr null, ptr %19, align 8, !alias.scope !152, !noalias !146
  call void @_Z10cmCatViewsSt16initializer_listISt4pairISt17basic_string_viewIcSt11char_traitsIcEEPNSt7__cxx1112basic_stringIcS3_SaIcEEEEE(ptr dead_on_unwind nonnull writable sret(%"class.std::__cxx11::basic_string") align 8 %4, ptr nonnull %3, i64 2)
  call void @llvm.lifetime.end.p0(i64 48, ptr nonnull %3)
  %20 = invoke noundef zeroext i1 @_ZN5cmsys11SystemTools10FileExistsERKNSt7__cxx1112basic_stringIcSt11char_traitsIcESaIcEEE(ptr noundef nonnull align 8 dereferenceable(32) %4)
          to label %21 unwind label %.loopexit.split-lp

21:                                               ; preds = %13
  br i1 %20, label %25, label %22

22:                                               ; preds = %21
  %23 = invoke noundef nonnull align 8 dereferenceable(32) ptr @_ZNSt7__cxx1112basic_stringIcSt11char_traitsIcESaIcEEaSEPKc(ptr noundef nonnull align 8 dereferenceable(32) %1, ptr noundef nonnull @.str.87)
          to label %.loopexit12 unwind label %.loopexit.split-lp

.loopexit:                                        ; preds = %26, %31
  %lpad.loopexit = landingpad { ptr, i32 }
          cleanup
  br label %24

.loopexit.split-lp:                               ; preds = %13, %22, %34
  %lpad.loopexit.split-lp = landingpad { ptr, i32 }
          cleanup
  br label %24

24:                                               ; preds = %.loopexit.split-lp, %.loopexit
  %lpad.phi = phi { ptr, i32 } [ %lpad.loopexit, %.loopexit ], [ %lpad.loopexit.split-lp, %.loopexit.split-lp ]
  call void @_ZNSt7__cxx1112basic_stringIcSt11char_traitsIcESaIcEED1Ev(ptr noundef nonnull align 8 dereferenceable(32) %4) #20
  resume { ptr, i32 } %lpad.phi

25:                                               ; preds = %21
  store i32 0, ptr %5, align 8
  br label %26

26:                                               ; preds = %25, %32
  %.01113 = phi i32 [ 0, %25 ], [ %33, %32 ]
  %27 = invoke i64 @_ZN20cmCTestScriptHandler30TryToRemoveBinaryDirectoryOnceERKNSt7__cxx1112basic_stringIcSt11char_traitsIcESaIcEEE(ptr noundef nonnull align 8 dereferenceable(32) %0)
          to label %28 unwind label %.loopexit

28:                                               ; preds = %26
  store i64 %27, ptr %5, align 8
  %29 = and i64 %27, 4294967295
  %30 = icmp eq i64 %29, 0
  br i1 %30, label %.loopexit12, label %31

31:                                               ; preds = %28
  invoke void @_ZN5cmsys11SystemTools5DelayEj(i32 noundef 100)
          to label %32 unwind label %.loopexit

32:                                               ; preds = %31
  %33 = add nuw nsw i32 %.01113, 1
  %exitcond.not = icmp eq i32 %33, 5
  br i1 %exitcond.not, label %34, label %26, !llvm.loop !155

34:                                               ; preds = %32
  invoke void @_ZNK5cmsys6Status9GetStringB5cxx11Ev(ptr dead_on_unwind nonnull writable sret(%"class.std::__cxx11::basic_string") align 8 %6, ptr noundef nonnull align 4 dereferenceable(8) %5)
          to label %35 unwind label %.loopexit.split-lp

35:                                               ; preds = %34
  %36 = call noundef nonnull align 8 dereferenceable(32) ptr @_ZNSt7__cxx1112basic_stringIcSt11char_traitsIcESaIcEEaSEOS4_(ptr noundef nonnull align 8 dereferenceable(32) %1, ptr noundef nonnull align 8 dereferenceable(32) %6) #20
  call void @_ZNSt7__cxx1112basic_stringIcSt11char_traitsIcESaIcEED1Ev(ptr noundef nonnull align 8 dereferenceable(32) %6) #20
  br label %.loopexit12

.loopexit12:                                      ; preds = %28, %22, %35
  %.0 = phi i1 [ false, %35 ], [ false, %22 ], [ true, %28 ]
  call void @_ZNSt7__cxx1112basic_stringIcSt11char_traitsIcESaIcEED1Ev(ptr noundef nonnull align 8 dereferenceable(32) %4) #20
  br label %37

37:                                               ; preds = %11, %.loopexit12, %9
  %.1 = phi i1 [ false, %9 ], [ %.0, %.loopexit12 ], [ true, %11 ]
  ret i1 %.1
}